target datalayout = "e-m:e-p270:32:32-p271:32:32-p272:64:64-i64:64-i128:128-f80:128-n8:16:32:64-S128"
target triple = "x86_64-pc-linux-gnu"

%struct.SDL_Rect = type { i32, i32, i32, i32 }
%struct.SDL_VideoDisplay = type { i32, ptr, i32, i32, ptr, %struct.SDL_DisplayMode, ptr, i32, i32, float, %struct.SDL_HDROutputProperties, i8, ptr, ptr, i32, ptr }
%struct.SDL_DisplayMode = type { i32, i32, i32, i32, float, float, i32, i32, ptr }
%struct.SDL_HDROutputProperties = type { float, float }
%struct.SDL_DisplayData = type { i32, ptr, i32, i32, i32, i32, i64, i8, i64, [16 x i8] }

; Function Attrs: nounwind uwtable
define hidden zeroext i1 @X11_GetDisplayBounds(ptr noundef %0, ptr noundef %1, ptr noundef %2) #0 {
  %4 = alloca ptr, align 8
  %5 = alloca ptr, align 8
  %6 = alloca ptr, align 8
  %7 = alloca ptr, align 8
  store ptr %0, ptr %4, align 8
  store ptr %1, ptr %5, align 8
  store ptr %2, ptr %6, align 8
  call void @llvm.lifetime.start.p0(i64 8, ptr %7) #6
  %8 = load ptr, ptr %5, align 8
  %9 = getelementptr inbounds nuw %struct.SDL_VideoDisplay, ptr %8, i32 0, i32 15
  %10 = load ptr, ptr %9, align 8
  store ptr %10, ptr %7, align 8
  %11 = load ptr, ptr %7, align 8
  %12 = getelementptr inbounds nuw %struct.SDL_DisplayData, ptr %11, i32 0, i32 4
  %13 = load i32, ptr %12, align 8
  %14 = load ptr, ptr %6, align 8
  %15 = getelementptr inbounds nuw %struct.SDL_Rect, ptr %14, i32 0, i32 0
  store i32 %13, ptr %15, align 4
  %16 = load ptr, ptr %7, align 8
  %17 = getelementptr inbounds nuw %struct.SDL_DisplayData, ptr %16, i32 0, i32 5
  %18 = load i32, ptr %17, align 4
  %19 = load ptr, ptr %6, align 8
  %20 = getelementptr inbounds nuw %struct.SDL_Rect, ptr %19, i32 0, i32 1
  store i32 %18, ptr %20, align 4
  %21 = load ptr, ptr %5, align 8
  %22 = getelementptr inbounds nuw %struct.SDL_VideoDisplay, ptr %21, i32 0, i32 6
  %23 = load ptr, ptr %22, align 8
  %24 = getelementptr inbounds nuw %struct.SDL_DisplayMode, ptr %23, i32 0, i32 2
  %25 = load i32, ptr %24, align 8
  %26 = load ptr, ptr %6, align 8
  %27 = getelementptr inbounds nuw %struct.SDL_Rect, ptr %26, i32 0, i32 2
  store i32 %25, ptr %27, align 4
  %28 = load ptr, ptr %5, align 8
  %29 = getelementptr inbounds nuw %struct.SDL_VideoDisplay, ptr %28, i32 0, i32 6
  %30 = load ptr, ptr %29, align 8
  %31 = getelementptr inbounds nuw %struct.SDL_DisplayMode, ptr %30, i32 0, i32 3
  %32 = load i32, ptr %31, align 4
  %33 = load ptr, ptr %6, align 8
  %34 = getelementptr inbounds nuw %struct.SDL_Rect, ptr %33, i32 0, i32 3
  store i32 %32, ptr %34, align 4
  call void @llvm.lifetime.end.p0(i64 8, ptr %7) #6
  ret i1 true
}