; Function Attrs: mustprogress nofree norecurse nosync nounwind willreturn memory(read, argmem: readwrite, inaccessiblemem: none) uwtable
define hidden noundef zeroext i1 @X11_GetDisplayBounds(ptr noundef readnone captures(none) %0, ptr noundef readonly captures(none) %1, ptr noundef writeonly captures(none) initializes((0, 16)) %2) local_unnamed_addr #7 {
  %4 = getelementptr inbounds nuw i8, ptr %1, i64 128
  %5 = load ptr, ptr %4, align 8
  %6 = getelementptr inbounds nuw i8, ptr %5, i64 24
  %7 = load i32, ptr %6, align 8
  store i32 %7, ptr %2, align 4
  %8 = getelementptr inbounds nuw i8, ptr %5, i64 28
  %9 = load i32, ptr %8, align 4
  %10 = getelementptr inbounds nuw i8, ptr %2, i64 4
  store i32 %9, ptr %10, align 4
  %11 = getelementptr inbounds nuw i8, ptr %1, i64 72
  %12 = load ptr, ptr %11, align 8
  %13 = getelementptr inbounds nuw i8, ptr %12, i64 8
  %14 = load i32, ptr %13, align 8
  %15 = getelementptr inbounds nuw i8, ptr %2, i64 8
  store i32 %14, ptr %15, align 4
  %16 = load ptr, ptr %11, align 8
  %17 = getelementptr inbounds nuw i8, ptr %16, i64 12
  %18 = load i32, ptr %17, align 4
  %19 = getelementptr inbounds nuw i8, ptr %2, i64 12
  store i32 %18, ptr %19, align 4
  ret i1 true
}